target datalayout = "e-m:e-p270:32:32-p271:32:32-p272:64:64-i64:64-i128:128-f80:128-n8:16:32:64-S128"
target triple = "x86_64-pc-linux-gnu"

%struct.JSValue = type { %union.JSValueUnion, i64 }
%union.JSValueUnion = type { double }

; Function Attrs: nounwind uwtable
define internal i64 @js_get_errno(i64 noundef %0) #0 {
  %2 = alloca i64, align 8
  store i64 %0, ptr %2, align 8
  %3 = load i64, ptr %2, align 8
  %4 = icmp eq i64 %3, -1
  br i1 %4, label %5, label %10

5:                                                ; preds = %1
  %6 = call ptr @__errno_location() #10
  %7 = load i32, ptr %6, align 4
  %8 = sub i32 0, %7
  %9 = sext i32 %8 to i64
  store i64 %9, ptr %2, align 8
  br label %10

10:                                               ; preds = %5, %1
  %11 = load i64, ptr %2, align 8
  ret i64 %11
}

; Function Attrs: nounwind uwtable
define internal ptr @JS_ToCString(ptr noundef %0, i64 %1, i64 %2) #0 {
  %4 = alloca %struct.JSValue, align 8
  %5 = alloca ptr, align 8
  %6 = getelementptr inbounds { i64, i64 }, ptr %4, i32 0, i32 0
  store i64 %1, ptr %6, align 8
  %7 = getelementptr inbounds { i64, i64 }, ptr %4, i32 0, i32 1
  store i64 %2, ptr %7, align 8
  store ptr %0, ptr %5, align 8
  %8 = load ptr, ptr %5, align 8
  %9 = getelementptr inbounds { i64, i64 }, ptr %4, i32 0, i32 0
  %10 = load i64, ptr %9, align 8
  %11 = getelementptr inbounds { i64, i64 }, ptr %4, i32 0, i32 1
  %12 = load i64, ptr %11, align 8
  %13 = call ptr @JS_ToCStringLen2(ptr noundef %8, ptr noundef null, i64 %10, i64 %12, i32 noundef 0)
  ret ptr %13
}

; Function Attrs: nounwind uwtable
define internal { i64, i64 } @js_os_rename(ptr noundef %0, i64 %1, i64 %2, i32 noundef %3, ptr noundef %4) #0 {
  %6 = alloca %struct.JSValue, align 8
  %7 = alloca ptr, align 8
  %8 = alloca i32, align 4
  %9 = alloca %struct.JSValue, align 8
  %10 = alloca %struct.JSValue, align 8
  %11 = alloca ptr, align 8
  %12 = alloca i32, align 4
  %13 = alloca ptr, align 8
  %14 = alloca ptr, align 8
  %15 = alloca ptr, align 8
  %16 = alloca i32, align 4
  %17 = getelementptr inbounds { i64, i64 }, ptr %10, i32 0, i32 0
  store i64 %1, ptr %17, align 8
  %18 = getelementptr inbounds { i64, i64 }, ptr %10, i32 0, i32 1
  store i64 %2, ptr %18, align 8
  store ptr %0, ptr %11, align 8
  store i32 %3, ptr %12, align 4
  store ptr %4, ptr %13, align 8
  %19 = load ptr, ptr %11, align 8
  %20 = load ptr, ptr %13, align 8
  %21 = getelementptr %struct.JSValue, ptr %20, i64 0
  %22 = getelementptr inbounds { i64, i64 }, ptr %21, i32 0, i32 0
  %23 = load i64, ptr %22, align 8
  %24 = getelementptr inbounds { i64, i64 }, ptr %21, i32 0, i32 1
  %25 = load i64, ptr %24, align 8
  %26 = call ptr @JS_ToCString(ptr noundef %19, i64 %23, i64 %25)
  store ptr %26, ptr %14, align 8
  %27 = load ptr, ptr %14, align 8
  %28 = icmp ne ptr %27, null
  br i1 %28, label %32, label %29

29:                                               ; preds = %5
  %30 = getelementptr inbounds %struct.JSValue, ptr %9, i32 0, i32 0
  store i32 0, ptr %30, align 8
  %31 = getelementptr inbounds %struct.JSValue, ptr %9, i32 0, i32 1
  store i64 6, ptr %31, align 8
  br label %68

32:                                               ; preds = %5
  %33 = load ptr, ptr %11, align 8
  %34 = load ptr, ptr %13, align 8
  %35 = getelementptr %struct.JSValue, ptr %34, i64 1
  %36 = getelementptr inbounds { i64, i64 }, ptr %35, i32 0, i32 0
  %37 = load i64, ptr %36, align 8
  %38 = getelementptr inbounds { i64, i64 }, ptr %35, i32 0, i32 1
  %39 = load i64, ptr %38, align 8
  %40 = call ptr @JS_ToCString(ptr noundef %33, i64 %37, i64 %39)
  store ptr %40, ptr %15, align 8
  %41 = load ptr, ptr %15, align 8
  %42 = icmp ne ptr %41, null
  br i1 %42, label %48, label %43

43:                                               ; preds = %32
  %44 = load ptr, ptr %11, align 8
  %45 = load ptr, ptr %14, align 8
  call void @JS_FreeCString(ptr noundef %44, ptr noundef %45)
  %46 = getelementptr inbounds %struct.JSValue, ptr %9, i32 0, i32 0
  store i32 0, ptr %46, align 8
  %47 = getelementptr inbounds %struct.JSValue, ptr %9, i32 0, i32 1
  store i64 6, ptr %47, align 8
  br label %68

48:                                               ; preds = %32
  %49 = load ptr, ptr %14, align 8
  %50 = load ptr, ptr %15, align 8
  %51 = call i32 @rename(ptr noundef %49, ptr noundef %50) #12
  %52 = sext i32 %51 to i64
  %53 = call i64 @js_get_errno(i64 noundef %52)
  %54 = trunc i64 %53 to i32
  store i32 %54, ptr %16, align 4
  %55 = load ptr, ptr %11, align 8
  %56 = load ptr, ptr %14, align 8
  call void @JS_FreeCString(ptr noundef %55, ptr noundef %56)
  %57 = load ptr, ptr %11, align 8
  %58 = load ptr, ptr %15, align 8
  call void @JS_FreeCString(ptr noundef %57, ptr noundef %58)
  %59 = load ptr, ptr %11, align 8
  %60 = load i32, ptr %16, align 4
  store ptr %59, ptr %7, align 8
  store i32 %60, ptr %8, align 4
  %61 = load i32, ptr %8, align 4
  store i32 %61, ptr %6, align 8
  %62 = getelementptr inbounds %struct.JSValue, ptr %6, i32 0, i32 1
  store i64 0, ptr %62, align 8
  %63 = load { i64, i64 }, ptr %6, align 8
  %64 = getelementptr inbounds { i64, i64 }, ptr %9, i32 0, i32 0
  %65 = extractvalue { i64, i64 } %63, 0
  store i64 %65, ptr %64, align 8
  %66 = getelementptr inbounds { i64, i64 }, ptr %9, i32 0, i32 1
  %67 = extractvalue { i64, i64 } %63, 1
  store i64 %67, ptr %66, align 8
  br label %68

68:                                               ; preds = %48, %43, %29
  %69 = load { i64, i64 }, ptr %9, align 8
  ret { i64, i64 } %69
}